target datalayout = "e-m:e-p270:32:32-p271:32:32-p272:64:64-i64:64-i128:128-f80:128-n8:16:32:64-S128"
target triple = "x86_64-pc-linux-gnu"

%"class.OpenImageIO::v3_1_0::basic_string_view" = type { ptr, i64 }

@.str.1 = private unnamed_addr constant [14 x i8] c"random_access\00", align 1
@.str.2 = private unnamed_addr constant [14 x i8] c"displaywindow\00", align 1
@.str.3 = private unnamed_addr constant [7 x i8] c"origin\00", align 1
@.str.4 = private unnamed_addr constant [15 x i8] c"negativeorigin\00", align 1
@.str.5 = private unnamed_addr constant [6 x i8] c"alpha\00", align 1
@.str.6 = private unnamed_addr constant [10 x i8] c"nchannels\00", align 1
@.str.7 = private unnamed_addr constant [15 x i8] c"channelformats\00", align 1
@.str.8 = private unnamed_addr constant [8 x i8] c"ioproxy\00", align 1

; Function Attrs: mustprogress nounwind uwtable
define linkonce_odr noundef i32 @_ZNSt11char_traitsIcE7compareEPKcS2_m(ptr noundef %0, ptr noundef %1, i64 noundef %2) #7 comdat align 2 {
  %4 = alloca i32, align 4
  %5 = alloca ptr, align 8
  %6 = alloca ptr, align 8
  %7 = alloca i64, align 8
  store ptr %0, ptr %5, align 8, !tbaa !69
  store ptr %1, ptr %6, align 8, !tbaa !69
  store i64 %2, ptr %7, align 8, !tbaa !123
  %8 = load i64, ptr %7, align 8, !tbaa !123
  %9 = icmp eq i64 %8, 0
  br i1 %9, label %10, label %11

10:                                               ; preds = %3
  store i32 0, ptr %4, align 4
  br label %16

11:                                               ; preds = %3
  %12 = load ptr, ptr %5, align 8, !tbaa !69
  %13 = load ptr, ptr %6, align 8, !tbaa !69
  %14 = load i64, ptr %7, align 8, !tbaa !123
  %15 = call i32 @memcmp(ptr noundef %12, ptr noundef %13, i64 noundef %14) #3
  store i32 %15, ptr %4, align 4
  br label %16

16:                                               ; preds = %11, %10
  %17 = load i32, ptr %4, align 4
  ret i32 %17
}

; Function Attrs: inlinehint mustprogress nounwind uwtable
define linkonce_odr noundef nonnull align 8 dereferenceable(8) ptr @_ZSt3minImERKT_S2_S2_(ptr noundef nonnull align 8 dereferenceable(8) %0, ptr noundef nonnull align 8 dereferenceable(8) %1) #4 comdat {
  %3 = alloca ptr, align 8
  %4 = alloca ptr, align 8
  %5 = alloca ptr, align 8
  store ptr %0, ptr %4, align 8, !tbaa !177
  store ptr %1, ptr %5, align 8, !tbaa !177
  %6 = load ptr, ptr %5, align 8, !tbaa !177
  %7 = load i64, ptr %6, align 8, !tbaa !123
  %8 = load ptr, ptr %4, align 8, !tbaa !177
  %9 = load i64, ptr %8, align 8, !tbaa !123
  %10 = icmp ult i64 %7, %9
  br i1 %10, label %11, label %13

11:                                               ; preds = %2
  %12 = load ptr, ptr %5, align 8, !tbaa !177
  store ptr %12, ptr %3, align 8
  br label %15

13:                                               ; preds = %2
  %14 = load ptr, ptr %4, align 8, !tbaa !177
  store ptr %14, ptr %3, align 8
  br label %15

15:                                               ; preds = %13, %11
  %16 = load ptr, ptr %3, align 8
  ret ptr %16
}

; Function Attrs: mustprogress nounwind uwtable
define linkonce_odr hidden noundef i32 @_ZNK11OpenImageIO6v3_1_017basic_string_viewIcSt11char_traitsIcEE7compareES4_(ptr noundef nonnull align 8 dereferenceable(16) %0, ptr noundef %1) #7 comdat align 2 personality ptr @__gxx_personality_v0 {
  %3 = alloca ptr, align 8
  %4 = alloca ptr, align 8
  %5 = alloca i32, align 4
  store ptr %0, ptr %3, align 8, !tbaa !63
  store ptr %1, ptr %4, align 8, !tbaa !63
  %6 = load ptr, ptr %3, align 8
  call void @llvm.lifetime.start.p0(i64 4, ptr %5) #3
  %7 = getelementptr inbounds nuw %"class.OpenImageIO::v3_1_0::basic_string_view", ptr %6, i32 0, i32 0
  %8 = load ptr, ptr %7, align 8, !tbaa !65
  %9 = getelementptr inbounds nuw %"class.OpenImageIO::v3_1_0::basic_string_view", ptr %1, i32 0, i32 0
  %10 = load ptr, ptr %9, align 8, !tbaa !65
  %11 = getelementptr inbounds nuw %"class.OpenImageIO::v3_1_0::basic_string_view", ptr %6, i32 0, i32 1
  %12 = getelementptr inbounds nuw %"class.OpenImageIO::v3_1_0::basic_string_view", ptr %1, i32 0, i32 1
  %13 = invoke noundef nonnull align 8 dereferenceable(8) ptr @_ZSt3minImERKT_S2_S2_(ptr noundef nonnull align 8 dereferenceable(8) %11, ptr noundef nonnull align 8 dereferenceable(8) %12)
          to label %14 unwind label %32

14:                                               ; preds = %2
  %15 = load i64, ptr %13, align 8, !tbaa !123
  %16 = invoke noundef i32 @_ZNSt11char_traitsIcE7compareEPKcS2_m(ptr noundef %8, ptr noundef %10, i64 noundef %15)
          to label %17 unwind label %32

17:                                               ; preds = %14
  store i32 %16, ptr %5, align 4, !tbaa !60
  %18 = load i32, ptr %5, align 4, !tbaa !60
  %19 = icmp ne i32 %18, 0
  br i1 %19, label %20, label %22

20:                                               ; preds = %17
  %21 = load i32, ptr %5, align 4, !tbaa !60
  br label %30

22:                                               ; preds = %17
  %23 = getelementptr inbounds nuw %"class.OpenImageIO::v3_1_0::basic_string_view", ptr %6, i32 0, i32 1
  %24 = load i64, ptr %23, align 8, !tbaa !68
  %25 = trunc i64 %24 to i32
  %26 = getelementptr inbounds nuw %"class.OpenImageIO::v3_1_0::basic_string_view", ptr %1, i32 0, i32 1
  %27 = load i64, ptr %26, align 8, !tbaa !68
  %28 = trunc i64 %27 to i32
  %29 = sub nsw i32 %25, %28
  br label %30

30:                                               ; preds = %22, %20
  %31 = phi i32 [ %21, %20 ], [ %29, %22 ]
  call void @llvm.lifetime.end.p0(i64 4, ptr %5) #3
  ret i32 %31

32:                                               ; preds = %14, %2
  %33 = landingpad { ptr, i32 }
          catch ptr null
  %34 = extractvalue { ptr, i32 } %33, 0
  call void @__clang_call_terminate(ptr %34) #24
  unreachable
}

; Function Attrs: noinline noreturn nounwind uwtable
define linkonce_odr hidden void @__clang_call_terminate(ptr noundef %0) #8 comdat {
  %2 = call ptr @__cxa_begin_catch(ptr %0) #3
  call void @_ZSt9terminatev() #24
  unreachable
}

; Function Attrs: mustprogress nounwind uwtable
define linkonce_odr noundef i64 @_ZNSt11char_traitsIcE6lengthEPKc(ptr noundef %0) #7 comdat align 2 {
  %2 = alloca ptr, align 8
  store ptr %0, ptr %2, align 8, !tbaa !69
  %3 = load ptr, ptr %2, align 8, !tbaa !69
  %4 = call i64 @strlen(ptr noundef %3) #3
  ret i64 %4
}

; Function Attrs: mustprogress nounwind uwtable
define linkonce_odr hidden noundef i64 @_ZNK11OpenImageIO6v3_1_017basic_string_viewIcSt11char_traitsIcEE4sizeEv(ptr noundef nonnull align 8 dereferenceable(16) %0) #7 comdat align 2 {
  %2 = alloca ptr, align 8
  store ptr %0, ptr %2, align 8, !tbaa !63
  %3 = load ptr, ptr %2, align 8
  %4 = getelementptr inbounds nuw %"class.OpenImageIO::v3_1_0::basic_string_view", ptr %3, i32 0, i32 1
  %5 = load i64, ptr %4, align 8, !tbaa !68
  ret i64 %5
}

; Function Attrs: mustprogress nounwind uwtable
define linkonce_odr hidden noundef ptr @_ZNK11OpenImageIO6v3_1_017basic_string_viewIcSt11char_traitsIcEE4dataEv(ptr noundef nonnull align 8 dereferenceable(16) %0) #7 comdat align 2 {
  %2 = alloca ptr, align 8
  store ptr %0, ptr %2, align 8, !tbaa !63
  %3 = load ptr, ptr %2, align 8
  %4 = getelementptr inbounds nuw %"class.OpenImageIO::v3_1_0::basic_string_view", ptr %3, i32 0, i32 0
  %5 = load ptr, ptr %4, align 8, !tbaa !65
  ret ptr %5
}

; Function Attrs: mustprogress nounwind uwtable
define linkonce_odr hidden noundef zeroext i1 @_ZN11OpenImageIO6v3_1_0eqENS0_17basic_string_viewIcSt11char_traitsIcEEES4_(ptr noundef %0, ptr noundef %1) #7 comdat personality ptr @__gxx_personality_v0 {
  %3 = alloca ptr, align 8
  %4 = alloca ptr, align 8
  %5 = alloca %"class.OpenImageIO::v3_1_0::basic_string_view", align 8
  store ptr %0, ptr %3, align 8, !tbaa !63
  store ptr %1, ptr %4, align 8, !tbaa !63
  %6 = call noundef i64 @_ZNK11OpenImageIO6v3_1_017basic_string_viewIcSt11char_traitsIcEE4sizeEv(ptr noundef nonnull align 8 dereferenceable(16) %0) #3
  %7 = call noundef i64 @_ZNK11OpenImageIO6v3_1_017basic_string_viewIcSt11char_traitsIcEE4sizeEv(ptr noundef nonnull align 8 dereferenceable(16) %1) #3
  %8 = icmp eq i64 %6, %7
  br i1 %8, label %9, label %13

9:                                                ; preds = %2
  invoke void @_ZN11OpenImageIO6v3_1_017basic_string_viewIcSt11char_traitsIcEEC2ERKS4_(ptr noundef nonnull align 8 dereferenceable(16) %5, ptr noundef nonnull align 8 dereferenceable(16) %1)
          to label %10 unwind label %16

10:                                               ; preds = %9
  %11 = call noundef i32 @_ZNK11OpenImageIO6v3_1_017basic_string_viewIcSt11char_traitsIcEE7compareES4_(ptr noundef nonnull align 8 dereferenceable(16) %0, ptr noundef %5) #3
  %12 = icmp eq i32 %11, 0
  br label %14

13:                                               ; preds = %2
  br label %14

14:                                               ; preds = %13, %10
  %15 = phi i1 [ %12, %10 ], [ false, %13 ]
  ret i1 %15

16:                                               ; preds = %9
  %17 = landingpad { ptr, i32 }
          catch ptr null
  %18 = extractvalue { ptr, i32 } %17, 0
  call void @__clang_call_terminate(ptr %18) #24
  unreachable
}

; Function Attrs: mustprogress nounwind uwtable
define linkonce_odr hidden void @_ZN11OpenImageIO6v3_1_017basic_string_viewIcSt11char_traitsIcEEC2EPKc(ptr noundef nonnull align 8 dereferenceable(16) %0, ptr noundef %1) unnamed_addr #7 comdat align 2 personality ptr @__gxx_personality_v0 {
  %3 = alloca ptr, align 8
  %4 = alloca ptr, align 8
  store ptr %0, ptr %3, align 8, !tbaa !63
  store ptr %1, ptr %4, align 8, !tbaa !69
  %5 = load ptr, ptr %3, align 8
  %6 = getelementptr inbounds nuw %"class.OpenImageIO::v3_1_0::basic_string_view", ptr %5, i32 0, i32 0
  %7 = load ptr, ptr %4, align 8, !tbaa !69
  store ptr %7, ptr %6, align 8, !tbaa !65
  %8 = getelementptr inbounds nuw %"class.OpenImageIO::v3_1_0::basic_string_view", ptr %5, i32 0, i32 1
  %9 = load ptr, ptr %4, align 8, !tbaa !69
  %10 = icmp ne ptr %9, null
  br i1 %10, label %11, label %15

11:                                               ; preds = %2
  %12 = load ptr, ptr %4, align 8, !tbaa !69
  %13 = invoke noundef i64 @_ZNSt11char_traitsIcE6lengthEPKc(ptr noundef %12)
          to label %14 unwind label %18

14:                                               ; preds = %11
  br label %16

15:                                               ; preds = %2
  br label %16

16:                                               ; preds = %15, %14
  %17 = phi i64 [ %13, %14 ], [ 0, %15 ]
  store i64 %17, ptr %8, align 8, !tbaa !68
  ret void

18:                                               ; preds = %11
  %19 = landingpad { ptr, i32 }
          catch ptr null
  %20 = extractvalue { ptr, i32 } %19, 0
  call void @__clang_call_terminate(ptr %20) #24
  unreachable
}

; Function Attrs: mustprogress nounwind uwtable
define linkonce_odr hidden void @_ZN11OpenImageIO6v3_1_017basic_string_viewIcSt11char_traitsIcEEC2ERKS4_(ptr noundef nonnull align 8 dereferenceable(16) %0, ptr noundef nonnull align 8 dereferenceable(16) %1) unnamed_addr #7 comdat align 2 {
  %3 = alloca ptr, align 8
  %4 = alloca ptr, align 8
  store ptr %0, ptr %3, align 8, !tbaa !63
  store ptr %1, ptr %4, align 8, !tbaa !63
  %5 = load ptr, ptr %3, align 8
  %6 = getelementptr inbounds nuw %"class.OpenImageIO::v3_1_0::basic_string_view", ptr %5, i32 0, i32 0
  %7 = load ptr, ptr %4, align 8, !tbaa !63
  %8 = call noundef ptr @_ZNK11OpenImageIO6v3_1_017basic_string_viewIcSt11char_traitsIcEE4dataEv(ptr noundef nonnull align 8 dereferenceable(16) %7) #3
  store ptr %8, ptr %6, align 8, !tbaa !65
  %9 = getelementptr inbounds nuw %"class.OpenImageIO::v3_1_0::basic_string_view", ptr %5, i32 0, i32 1
  %10 = load ptr, ptr %4, align 8, !tbaa !63
  %11 = call noundef i64 @_ZNK11OpenImageIO6v3_1_017basic_string_viewIcSt11char_traitsIcEE4sizeEv(ptr noundef nonnull align 8 dereferenceable(16) %10) #3
  store i64 %11, ptr %9, align 8, !tbaa !68
  ret void
}

; Function Attrs: mustprogress uwtable
define hidden noundef i32 @_ZNK11OpenImageIO6v3_1_09RLAOutput8supportsENS0_17basic_string_viewIcSt11char_traitsIcEEE(ptr noundef nonnull align 8 dereferenceable(1032) %0, ptr noundef %1) unnamed_addr #6 align 2 {
  %3 = alloca i32, align 4
  %4 = alloca ptr, align 8
  %5 = alloca ptr, align 8
  %6 = alloca %"class.OpenImageIO::v3_1_0::basic_string_view", align 8
  %7 = alloca %"class.OpenImageIO::v3_1_0::basic_string_view", align 8
  %8 = alloca %"class.OpenImageIO::v3_1_0::basic_string_view", align 8
  %9 = alloca %"class.OpenImageIO::v3_1_0::basic_string_view", align 8
  %10 = alloca %"class.OpenImageIO::v3_1_0::basic_string_view", align 8
  %11 = alloca %"class.OpenImageIO::v3_1_0::basic_string_view", align 8
  %12 = alloca %"class.OpenImageIO::v3_1_0::basic_string_view", align 8
  %13 = alloca %"class.OpenImageIO::v3_1_0::basic_string_view", align 8
  %14 = alloca %"class.OpenImageIO::v3_1_0::basic_string_view", align 8
  %15 = alloca %"class.OpenImageIO::v3_1_0::basic_string_view", align 8
  %16 = alloca %"class.OpenImageIO::v3_1_0::basic_string_view", align 8
  %17 = alloca %"class.OpenImageIO::v3_1_0::basic_string_view", align 8
  %18 = alloca %"class.OpenImageIO::v3_1_0::basic_string_view", align 8
  %19 = alloca %"class.OpenImageIO::v3_1_0::basic_string_view", align 8
  %20 = alloca %"class.OpenImageIO::v3_1_0::basic_string_view", align 8
  %21 = alloca %"class.OpenImageIO::v3_1_0::basic_string_view", align 8
  store ptr %0, ptr %4, align 8, !tbaa !8
  store ptr %1, ptr %5, align 8, !tbaa !63
  call void @_ZN11OpenImageIO6v3_1_017basic_string_viewIcSt11char_traitsIcEEC2ERKS4_(ptr noundef nonnull align 8 dereferenceable(16) %6, ptr noundef nonnull align 8 dereferenceable(16) %1)
  call void @_ZN11OpenImageIO6v3_1_017basic_string_viewIcSt11char_traitsIcEEC2EPKc(ptr noundef nonnull align 8 dereferenceable(16) %7, ptr noundef @.str.1) #3
  %22 = call noundef zeroext i1 @_ZN11OpenImageIO6v3_1_0eqENS0_17basic_string_viewIcSt11char_traitsIcEEES4_(ptr noundef %6, ptr noundef %7) #3
  br i1 %22, label %23, label %24

23:                                               ; preds = %2
  store i32 1, ptr %3, align 4
  br label %46

24:                                               ; preds = %2
  call void @_ZN11OpenImageIO6v3_1_017basic_string_viewIcSt11char_traitsIcEEC2ERKS4_(ptr noundef nonnull align 8 dereferenceable(16) %8, ptr noundef nonnull align 8 dereferenceable(16) %1)
  call void @_ZN11OpenImageIO6v3_1_017basic_string_viewIcSt11char_traitsIcEEC2EPKc(ptr noundef nonnull align 8 dereferenceable(16) %9, ptr noundef @.str.2) #3
  %25 = call noundef zeroext i1 @_ZN11OpenImageIO6v3_1_0eqENS0_17basic_string_viewIcSt11char_traitsIcEEES4_(ptr noundef %8, ptr noundef %9) #3
  br i1 %25, label %26, label %27

26:                                               ; preds = %24
  store i32 1, ptr %3, align 4
  br label %46

27:                                               ; preds = %24
  call void @_ZN11OpenImageIO6v3_1_017basic_string_viewIcSt11char_traitsIcEEC2ERKS4_(ptr noundef nonnull align 8 dereferenceable(16) %10, ptr noundef nonnull align 8 dereferenceable(16) %1)
  call void @_ZN11OpenImageIO6v3_1_017basic_string_viewIcSt11char_traitsIcEEC2EPKc(ptr noundef nonnull align 8 dereferenceable(16) %11, ptr noundef @.str.3) #3
  %28 = call noundef zeroext i1 @_ZN11OpenImageIO6v3_1_0eqENS0_17basic_string_viewIcSt11char_traitsIcEEES4_(ptr noundef %10, ptr noundef %11) #3
  br i1 %28, label %29, label %30

29:                                               ; preds = %27
  store i32 1, ptr %3, align 4
  br label %46

30:                                               ; preds = %27
  call void @_ZN11OpenImageIO6v3_1_017basic_string_viewIcSt11char_traitsIcEEC2ERKS4_(ptr noundef nonnull align 8 dereferenceable(16) %12, ptr noundef nonnull align 8 dereferenceable(16) %1)
  call void @_ZN11OpenImageIO6v3_1_017basic_string_viewIcSt11char_traitsIcEEC2EPKc(ptr noundef nonnull align 8 dereferenceable(16) %13, ptr noundef @.str.4) #3
  %31 = call noundef zeroext i1 @_ZN11OpenImageIO6v3_1_0eqENS0_17basic_string_viewIcSt11char_traitsIcEEES4_(ptr noundef %12, ptr noundef %13) #3
  br i1 %31, label %32, label %33

32:                                               ; preds = %30
  store i32 1, ptr %3, align 4
  br label %46

33:                                               ; preds = %30
  call void @_ZN11OpenImageIO6v3_1_017basic_string_viewIcSt11char_traitsIcEEC2ERKS4_(ptr noundef nonnull align 8 dereferenceable(16) %14, ptr noundef nonnull align 8 dereferenceable(16) %1)
  call void @_ZN11OpenImageIO6v3_1_017basic_string_viewIcSt11char_traitsIcEEC2EPKc(ptr noundef nonnull align 8 dereferenceable(16) %15, ptr noundef @.str.5) #3
  %34 = call noundef zeroext i1 @_ZN11OpenImageIO6v3_1_0eqENS0_17basic_string_viewIcSt11char_traitsIcEEES4_(ptr noundef %14, ptr noundef %15) #3
  br i1 %34, label %35, label %36

35:                                               ; preds = %33
  store i32 1, ptr %3, align 4
  br label %46

36:                                               ; preds = %33
  call void @_ZN11OpenImageIO6v3_1_017basic_string_viewIcSt11char_traitsIcEEC2ERKS4_(ptr noundef nonnull align 8 dereferenceable(16) %16, ptr noundef nonnull align 8 dereferenceable(16) %1)
  call void @_ZN11OpenImageIO6v3_1_017basic_string_viewIcSt11char_traitsIcEEC2EPKc(ptr noundef nonnull align 8 dereferenceable(16) %17, ptr noundef @.str.6) #3
  %37 = call noundef zeroext i1 @_ZN11OpenImageIO6v3_1_0eqENS0_17basic_string_viewIcSt11char_traitsIcEEES4_(ptr noundef %16, ptr noundef %17) #3
  br i1 %37, label %38, label %39

38:                                               ; preds = %36
  store i32 1, ptr %3, align 4
  br label %46

39:                                               ; preds = %36
  call void @_ZN11OpenImageIO6v3_1_017basic_string_viewIcSt11char_traitsIcEEC2ERKS4_(ptr noundef nonnull align 8 dereferenceable(16) %18, ptr noundef nonnull align 8 dereferenceable(16) %1)
  call void @_ZN11OpenImageIO6v3_1_017basic_string_viewIcSt11char_traitsIcEEC2EPKc(ptr noundef nonnull align 8 dereferenceable(16) %19, ptr noundef @.str.7) #3
  %40 = call noundef zeroext i1 @_ZN11OpenImageIO6v3_1_0eqENS0_17basic_string_viewIcSt11char_traitsIcEEES4_(ptr noundef %18, ptr noundef %19) #3
  br i1 %40, label %41, label %42

41:                                               ; preds = %39
  store i32 1, ptr %3, align 4
  br label %46

42:                                               ; preds = %39
  call void @_ZN11OpenImageIO6v3_1_017basic_string_viewIcSt11char_traitsIcEEC2ERKS4_(ptr noundef nonnull align 8 dereferenceable(16) %20, ptr noundef nonnull align 8 dereferenceable(16) %1)
  call void @_ZN11OpenImageIO6v3_1_017basic_string_viewIcSt11char_traitsIcEEC2EPKc(ptr noundef nonnull align 8 dereferenceable(16) %21, ptr noundef @.str.8) #3
  %43 = call noundef zeroext i1 @_ZN11OpenImageIO6v3_1_0eqENS0_17basic_string_viewIcSt11char_traitsIcEEES4_(ptr noundef %20, ptr noundef %21) #3
  br i1 %43, label %44, label %45

44:                                               ; preds = %42
  store i32 1, ptr %3, align 4
  br label %46

45:                                               ; preds = %42
  store i32 0, ptr %3, align 4
  br label %46

46:                                               ; preds = %45, %44, %41, %38, %35, %32, %29, %26, %23
  %47 = load i32, ptr %3, align 4
  ret i32 %47
}