; Function Attrs: mustprogress nofree nounwind willreturn memory(read, inaccessiblemem: none) uwtable
define hidden noundef range(i32 0, 2) i32 @_ZNK11OpenImageIO6v3_1_09RLAOutput8supportsENS0_17basic_string_viewIcSt11char_traitsIcEEE(ptr nonnull readnone align 8 captures(none) %0, ptr noundef readonly captures(none) %1) unnamed_addr #9 align 2 personality ptr @__gxx_personality_v0 {
  %3 = load ptr, ptr %1, align 8, !tbaa !50
  %4 = getelementptr inbounds nuw i8, ptr %1, i64 8
  %5 = load i64, ptr %4, align 8, !tbaa !53
  switch i64 %5, label %_ZN11OpenImageIO6v3_1_0eqENS0_17basic_string_viewIcSt11char_traitsIcEEES4_.exit35.thread [
    i64 13, label %_ZNSt11char_traitsIcE7compareEPKcS2_m.exit.i.i
    i64 6, label %_ZNSt11char_traitsIcE7compareEPKcS2_m.exit.i.i6
    i64 14, label %_ZNSt11char_traitsIcE7compareEPKcS2_m.exit.i.i11
    i64 5, label %_ZNSt11char_traitsIcE7compareEPKcS2_m.exit.i.i16
    i64 9, label %_ZNSt11char_traitsIcE7compareEPKcS2_m.exit.i.i21
    i64 7, label %_ZNSt11char_traitsIcE7compareEPKcS2_m.exit.i.i31
  ]

_ZNSt11char_traitsIcE7compareEPKcS2_m.exit.i.i:   ; preds = %2
  %bcmp.i = tail call i32 @bcmp(ptr noundef nonnull dereferenceable(13) %3, ptr noundef nonnull dereferenceable(13) @.str.1, i64 13)
  %.not.i.i = icmp eq i32 %bcmp.i, 0
  br i1 %.not.i.i, label %_ZN11OpenImageIO6v3_1_0eqENS0_17basic_string_viewIcSt11char_traitsIcEEES4_.exit, label %_ZNSt11char_traitsIcE7compareEPKcS2_m.exit.i.i1

_ZNSt11char_traitsIcE7compareEPKcS2_m.exit.i.i1:  ; preds = %_ZNSt11char_traitsIcE7compareEPKcS2_m.exit.i.i
  %bcmp.i2 = tail call i32 @bcmp(ptr noundef nonnull dereferenceable(13) %3, ptr noundef nonnull dereferenceable(13) @.str.2, i64 13)
  %.not.i.i3 = icmp eq i32 %bcmp.i2, 0
  br i1 %.not.i.i3, label %_ZN11OpenImageIO6v3_1_0eqENS0_17basic_string_viewIcSt11char_traitsIcEEES4_.exit, label %_ZN11OpenImageIO6v3_1_0eqENS0_17basic_string_viewIcSt11char_traitsIcEEES4_.exit35.thread

_ZNSt11char_traitsIcE7compareEPKcS2_m.exit.i.i6:  ; preds = %2
  %bcmp.i7 = tail call i32 @bcmp(ptr %3, ptr nonnull @.str.3, i64 %5)
  %.not.i.i8 = icmp eq i32 %bcmp.i7, 0
  br i1 %.not.i.i8, label %_ZN11OpenImageIO6v3_1_0eqENS0_17basic_string_viewIcSt11char_traitsIcEEES4_.exit, label %_ZN11OpenImageIO6v3_1_0eqENS0_17basic_string_viewIcSt11char_traitsIcEEES4_.exit35.thread

_ZNSt11char_traitsIcE7compareEPKcS2_m.exit.i.i11: ; preds = %2
  %bcmp.i12 = tail call i32 @bcmp(ptr %3, ptr nonnull @.str.4, i64 %5)
  %.not.i.i13 = icmp eq i32 %bcmp.i12, 0
  br i1 %.not.i.i13, label %_ZN11OpenImageIO6v3_1_0eqENS0_17basic_string_viewIcSt11char_traitsIcEEES4_.exit, label %_ZNSt11char_traitsIcE7compareEPKcS2_m.exit.i.i26

_ZNSt11char_traitsIcE7compareEPKcS2_m.exit.i.i16: ; preds = %2
  %bcmp.i17 = tail call i32 @bcmp(ptr %3, ptr nonnull @.str.5, i64 %5)
  %.not.i.i18 = icmp eq i32 %bcmp.i17, 0
  br i1 %.not.i.i18, label %_ZN11OpenImageIO6v3_1_0eqENS0_17basic_string_viewIcSt11char_traitsIcEEES4_.exit, label %_ZN11OpenImageIO6v3_1_0eqENS0_17basic_string_viewIcSt11char_traitsIcEEES4_.exit35.thread

_ZNSt11char_traitsIcE7compareEPKcS2_m.exit.i.i21: ; preds = %2
  %bcmp.i22 = tail call i32 @bcmp(ptr %3, ptr nonnull @.str.6, i64 %5)
  %.not.i.i23 = icmp eq i32 %bcmp.i22, 0
  br i1 %.not.i.i23, label %_ZN11OpenImageIO6v3_1_0eqENS0_17basic_string_viewIcSt11char_traitsIcEEES4_.exit, label %_ZN11OpenImageIO6v3_1_0eqENS0_17basic_string_viewIcSt11char_traitsIcEEES4_.exit35.thread

_ZNSt11char_traitsIcE7compareEPKcS2_m.exit.i.i26: ; preds = %_ZNSt11char_traitsIcE7compareEPKcS2_m.exit.i.i11
  %bcmp.i27 = tail call i32 @bcmp(ptr %3, ptr nonnull @.str.7, i64 %5)
  %.not.i.i28 = icmp eq i32 %bcmp.i27, 0
  br i1 %.not.i.i28, label %_ZN11OpenImageIO6v3_1_0eqENS0_17basic_string_viewIcSt11char_traitsIcEEES4_.exit, label %_ZN11OpenImageIO6v3_1_0eqENS0_17basic_string_viewIcSt11char_traitsIcEEES4_.exit35.thread

_ZNSt11char_traitsIcE7compareEPKcS2_m.exit.i.i31: ; preds = %2
  %bcmp.i32 = tail call i32 @bcmp(ptr %3, ptr nonnull @.str.8, i64 %5)
  %.not.i.i33 = icmp eq i32 %bcmp.i32, 0
  br i1 %.not.i.i33, label %_ZN11OpenImageIO6v3_1_0eqENS0_17basic_string_viewIcSt11char_traitsIcEEES4_.exit, label %_ZN11OpenImageIO6v3_1_0eqENS0_17basic_string_viewIcSt11char_traitsIcEEES4_.exit35.thread

_ZN11OpenImageIO6v3_1_0eqENS0_17basic_string_viewIcSt11char_traitsIcEEES4_.exit35.thread: ; preds = %_ZNSt11char_traitsIcE7compareEPKcS2_m.exit.i.i26, %_ZNSt11char_traitsIcE7compareEPKcS2_m.exit.i.i21, %_ZNSt11char_traitsIcE7compareEPKcS2_m.exit.i.i16, %_ZNSt11char_traitsIcE7compareEPKcS2_m.exit.i.i6, %_ZNSt11char_traitsIcE7compareEPKcS2_m.exit.i.i1, %2, %_ZNSt11char_traitsIcE7compareEPKcS2_m.exit.i.i31
  br label %_ZN11OpenImageIO6v3_1_0eqENS0_17basic_string_viewIcSt11char_traitsIcEEES4_.exit

_ZN11OpenImageIO6v3_1_0eqENS0_17basic_string_viewIcSt11char_traitsIcEEES4_.exit: ; preds = %_ZN11OpenImageIO6v3_1_0eqENS0_17basic_string_viewIcSt11char_traitsIcEEES4_.exit35.thread, %_ZNSt11char_traitsIcE7compareEPKcS2_m.exit.i.i31, %_ZNSt11char_traitsIcE7compareEPKcS2_m.exit.i.i26, %_ZNSt11char_traitsIcE7compareEPKcS2_m.exit.i.i21, %_ZNSt11char_traitsIcE7compareEPKcS2_m.exit.i.i16, %_ZNSt11char_traitsIcE7compareEPKcS2_m.exit.i.i11, %_ZNSt11char_traitsIcE7compareEPKcS2_m.exit.i.i6, %_ZNSt11char_traitsIcE7compareEPKcS2_m.exit.i.i1, %_ZNSt11char_traitsIcE7compareEPKcS2_m.exit.i.i
  %.0 = phi i32 [ 1, %_ZNSt11char_traitsIcE7compareEPKcS2_m.exit.i.i ], [ 1, %_ZNSt11char_traitsIcE7compareEPKcS2_m.exit.i.i1 ], [ 1, %_ZNSt11char_traitsIcE7compareEPKcS2_m.exit.i.i6 ], [ 1, %_ZNSt11char_traitsIcE7compareEPKcS2_m.exit.i.i11 ], [ 1, %_ZNSt11char_traitsIcE7compareEPKcS2_m.exit.i.i16 ], [ 1, %_ZNSt11char_traitsIcE7compareEPKcS2_m.exit.i.i21 ], [ 1, %_ZNSt11char_traitsIcE7compareEPKcS2_m.exit.i.i26 ], [ 0, %_ZN11OpenImageIO6v3_1_0eqENS0_17basic_string_viewIcSt11char_traitsIcEEES4_.exit35.thread ], [ 1, %_ZNSt11char_traitsIcE7compareEPKcS2_m.exit.i.i31 ]
  ret i32 %.0
}